target datalayout = "e-m:e-p270:32:32-p271:32:32-p272:64:64-i64:64-i128:128-f80:128-n8:16:32:64-S128"
target triple = "x86_64-pc-linux-gnu"

%"class.std::__cxx11::basic_string" = type { %"struct.std::__cxx11::basic_string<char>::_Alloc_hider", i64, %union.anon }
%"struct.std::__cxx11::basic_string<char>::_Alloc_hider" = type { ptr }
%union.anon = type { i64, [8 x i8] }
%"struct.faiss::OperatingPoints" = type { %"class.std::vector.8", %"class.std::vector.8" }
%"class.std::vector.8" = type { %"struct.std::_Vector_base.9" }
%"struct.std::_Vector_base.9" = type { %"struct.std::_Vector_base<faiss::OperatingPoint, std::allocator<faiss::OperatingPoint>>::_Vector_impl" }
%"struct.std::_Vector_base<faiss::OperatingPoint, std::allocator<faiss::OperatingPoint>>::_Vector_impl" = type { %"struct.std::_Vector_base<faiss::OperatingPoint, std::allocator<faiss::OperatingPoint>>::_Vector_impl_data" }
%"struct.std::_Vector_base<faiss::OperatingPoint, std::allocator<faiss::OperatingPoint>>::_Vector_impl_data" = type { ptr, ptr, ptr }
%"struct.faiss::OperatingPoint" = type { double, double, %"class.std::__cxx11::basic_string", i64 }

@.str.5 = private unnamed_addr constant [1 x i8] zeroinitializer, align 1
@.str.8 = private unnamed_addr constant [2 x i8] c"w\00", align 1
@stderr = external global ptr, align 8
@.str.9 = private unnamed_addr constant [15 x i8] c"cannot open %s\00", align 1
@.str.10 = private unnamed_addr constant [10 x i8] c"%g %g %s\0A\00", align 1

; Function Attrs: mustprogress nounwind uwtable
define linkonce_odr noundef nonnull align 8 dereferenceable(56) ptr @_ZNKSt6vectorIN5faiss14OperatingPointESaIS1_EEixEm(ptr noundef nonnull align 8 dereferenceable(24) %0, i64 noundef %1) #1 comdat align 2 {
  %3 = alloca ptr, align 8
  %4 = alloca i64, align 8
  store ptr %0, ptr %3, align 8
  store i64 %1, ptr %4, align 8
  %5 = load ptr, ptr %3, align 8
  %6 = getelementptr inbounds %"struct.std::_Vector_base.9", ptr %5, i32 0, i32 0
  %7 = getelementptr inbounds %"struct.std::_Vector_base<faiss::OperatingPoint, std::allocator<faiss::OperatingPoint>>::_Vector_impl_data", ptr %6, i32 0, i32 0
  %8 = load ptr, ptr %7, align 8
  %9 = load i64, ptr %4, align 8
  %10 = getelementptr inbounds %"struct.faiss::OperatingPoint", ptr %8, i64 %9
  ret ptr %10
}

; Function Attrs: mustprogress nounwind uwtable
define linkonce_odr noundef i64 @_ZNKSt6vectorIN5faiss14OperatingPointESaIS1_EE4sizeEv(ptr noundef nonnull align 8 dereferenceable(24) %0) #1 comdat align 2 {
  %2 = alloca ptr, align 8
  store ptr %0, ptr %2, align 8
  %3 = load ptr, ptr %2, align 8
  %4 = getelementptr inbounds %"struct.std::_Vector_base.9", ptr %3, i32 0, i32 0
  %5 = getelementptr inbounds %"struct.std::_Vector_base<faiss::OperatingPoint, std::allocator<faiss::OperatingPoint>>::_Vector_impl_data", ptr %4, i32 0, i32 1
  %6 = load ptr, ptr %5, align 8
  %7 = getelementptr inbounds %"struct.std::_Vector_base.9", ptr %3, i32 0, i32 0
  %8 = getelementptr inbounds %"struct.std::_Vector_base<faiss::OperatingPoint, std::allocator<faiss::OperatingPoint>>::_Vector_impl_data", ptr %7, i32 0, i32 0
  %9 = load ptr, ptr %8, align 8
  %10 = ptrtoint ptr %6 to i64
  %11 = ptrtoint ptr %9 to i64
  %12 = sub i64 %10, %11
  %13 = sdiv exact i64 %12, 56
  ret i64 %13
}

; Function Attrs: mustprogress uwtable
define void @_ZNK5faiss15OperatingPoints14all_to_gnuplotEPKc(ptr noundef nonnull align 8 dereferenceable(48) %0, ptr noundef %1) #0 align 2 {
  %3 = alloca ptr, align 8
  %4 = alloca ptr, align 8
  %5 = alloca ptr, align 8
  %6 = alloca i32, align 4
  %7 = alloca ptr, align 8
  store ptr %0, ptr %3, align 8
  store ptr %1, ptr %4, align 8
  %8 = load ptr, ptr %3, align 8
  %9 = load ptr, ptr %4, align 8
  %10 = call noalias ptr @fopen(ptr noundef %9, ptr noundef @.str.8)
  store ptr %10, ptr %5, align 8
  %11 = load ptr, ptr %5, align 8
  %12 = icmp ne ptr %11, null
  br i1 %12, label %17, label %13

13:                                               ; preds = %2
  %14 = load ptr, ptr @stderr, align 8
  %15 = load ptr, ptr %4, align 8
  %16 = call i32 (ptr, ptr, ...) @fprintf(ptr noundef %14, ptr noundef @.str.9, ptr noundef %15) #5
  call void @perror(ptr noundef @.str.5)
  call void @abort() #21
  unreachable

17:                                               ; preds = %2
  store i32 0, ptr %6, align 4
  br label %18

18:                                               ; preds = %40, %17
  %19 = load i32, ptr %6, align 4
  %20 = sext i32 %19 to i64
  %21 = getelementptr inbounds %"struct.faiss::OperatingPoints", ptr %8, i32 0, i32 0
  %22 = call noundef i64 @_ZNKSt6vectorIN5faiss14OperatingPointESaIS1_EE4sizeEv(ptr noundef nonnull align 8 dereferenceable(24) %21) #5
  %23 = icmp ult i64 %20, %22
  br i1 %23, label %24, label %43

24:                                               ; preds = %18
  %25 = getelementptr inbounds %"struct.faiss::OperatingPoints", ptr %8, i32 0, i32 0
  %26 = load i32, ptr %6, align 4
  %27 = sext i32 %26 to i64
  %28 = call noundef nonnull align 8 dereferenceable(56) ptr @_ZNKSt6vectorIN5faiss14OperatingPointESaIS1_EEixEm(ptr noundef nonnull align 8 dereferenceable(24) %25, i64 noundef %27) #5
  store ptr %28, ptr %7, align 8
  %29 = load ptr, ptr %5, align 8
  %30 = load ptr, ptr %7, align 8
  %31 = getelementptr inbounds %"struct.faiss::OperatingPoint", ptr %30, i32 0, i32 0
  %32 = load double, ptr %31, align 8
  %33 = load ptr, ptr %7, align 8
  %34 = getelementptr inbounds %"struct.faiss::OperatingPoint", ptr %33, i32 0, i32 1
  %35 = load double, ptr %34, align 8
  %36 = load ptr, ptr %7, align 8
  %37 = getelementptr inbounds %"struct.faiss::OperatingPoint", ptr %36, i32 0, i32 2
  %38 = call noundef ptr @_ZNKSt7__cxx1112basic_stringIcSt11char_traitsIcESaIcEE5c_strEv(ptr noundef nonnull align 8 dereferenceable(32) %37) #5
  %39 = call i32 (ptr, ptr, ...) @fprintf(ptr noundef %29, ptr noundef @.str.10, double noundef %32, double noundef %35, ptr noundef %38) #5
  br label %40

40:                                               ; preds = %24
  %41 = load i32, ptr %6, align 4
  %42 = add nsw i32 %41, 1
  store i32 %42, ptr %6, align 4
  br label %18, !llvm.loop !25

43:                                               ; preds = %18
  %44 = load ptr, ptr %5, align 8
  %45 = call i32 @fclose(ptr noundef %44)
  ret void
}