; Function Attrs: mustprogress nounwind uwtable
define void @_ZNK5faiss15OperatingPoints14all_to_gnuplotEPKc(ptr nocapture noundef nonnull readonly align 8 dereferenceable(48) %0, ptr noundef %1) local_unnamed_addr #1 align 2 {
  %3 = tail call noalias ptr @fopen(ptr noundef %1, ptr noundef nonnull @.str.8)
  %.not = icmp eq ptr %3, null
  br i1 %.not, label %7, label %.preheader

.preheader:                                       ; preds = %2
  %4 = getelementptr inbounds i8, ptr %0, i64 8
  %5 = load ptr, ptr %4, align 8
  %6 = load ptr, ptr %0, align 8
  %.not14 = icmp eq ptr %5, %6
  br i1 %.not14, label %._crit_edge, label %.lr.ph

7:                                                ; preds = %2
  %8 = load ptr, ptr @stderr, align 8
  %9 = tail call i32 (ptr, ptr, ...) @fprintf(ptr noundef %8, ptr noundef nonnull @.str.9, ptr noundef %1) #34
  tail call void @perror(ptr noundef nonnull @.str.5) #35
  tail call void @abort() #33
  unreachable

.lr.ph:                                           ; preds = %.preheader, %.lr.ph
  %indvars.iv = phi i64 [ %indvars.iv.next, %.lr.ph ], [ 0, %.preheader ]
  %10 = phi ptr [ %19, %.lr.ph ], [ %6, %.preheader ]
  %11 = getelementptr inbounds %"struct.faiss::OperatingPoint", ptr %10, i64 %indvars.iv
  %12 = load double, ptr %11, align 8
  %13 = getelementptr inbounds i8, ptr %11, i64 8
  %14 = load double, ptr %13, align 8
  %15 = getelementptr inbounds i8, ptr %11, i64 16
  %16 = tail call noundef ptr @_ZNKSt7__cxx1112basic_stringIcSt11char_traitsIcESaIcEE5c_strEv(ptr noundef nonnull align 8 dereferenceable(32) %15) #14
  %17 = tail call i32 (ptr, ptr, ...) @fprintf(ptr noundef nonnull %3, ptr noundef nonnull @.str.10, double noundef %12, double noundef %14, ptr noundef %16) #14
  %indvars.iv.next = add nuw nsw i64 %indvars.iv, 1
  %18 = load ptr, ptr %4, align 8
  %19 = load ptr, ptr %0, align 8
  %20 = ptrtoint ptr %18 to i64
  %21 = ptrtoint ptr %19 to i64
  %22 = sub i64 %20, %21
  %23 = sdiv exact i64 %22, 56
  %24 = icmp ugt i64 %23, %indvars.iv.next
  br i1 %24, label %.lr.ph, label %._crit_edge, !llvm.loop !36

._crit_edge:                                      ; preds = %.lr.ph, %.preheader
  %25 = tail call i32 @fclose(ptr noundef nonnull %3)
  ret void
}